target datalayout = "e-m:e-p270:32:32-p271:32:32-p272:64:64-i64:64-i128:128-f80:128-n8:16:32:64-S128"
target triple = "x86_64-pc-linux-gnu"

; Function Attrs: mustprogress nounwind uwtable
define dso_local noundef i32 @_ZN4Luau7CodeGen22getNativeContextOffsetEi(i32 noundef %0) #0 {
  %2 = alloca i32, align 4
  %3 = alloca i32, align 4
  store i32 %0, ptr %3, align 4, !tbaa !38
  %4 = load i32, ptr %3, align 4, !tbaa !38
  switch i32 %4, label %22 [
    i32 3, label %5
    i32 4, label %6
    i32 5, label %7
    i32 6, label %8
    i32 8, label %9
    i32 9, label %10
    i32 11, label %11
    i32 16, label %12
    i32 17, label %13
    i32 23, label %14
    i32 24, label %15
    i32 26, label %16
    i32 27, label %17
    i32 13, label %18
    i32 21, label %19
    i32 256, label %20
    i32 15, label %21
  ]

5:                                                ; preds = %1
  store i32 304, ptr %2, align 4
  br label %24

6:                                                ; preds = %1
  store i32 280, ptr %2, align 4
  br label %24

7:                                                ; preds = %1
  store i32 336, ptr %2, align 4
  br label %24

8:                                                ; preds = %1
  store i32 328, ptr %2, align 4
  br label %24

9:                                                ; preds = %1
  store i32 320, ptr %2, align 4
  br label %24

10:                                               ; preds = %1
  store i32 312, ptr %2, align 4
  br label %24

11:                                               ; preds = %1
  store i32 256, ptr %2, align 4
  br label %24

12:                                               ; preds = %1
  store i32 376, ptr %2, align 4
  br label %24

13:                                               ; preds = %1
  store i32 360, ptr %2, align 4
  br label %24

14:                                               ; preds = %1
  store i32 296, ptr %2, align 4
  br label %24

15:                                               ; preds = %1
  store i32 288, ptr %2, align 4
  br label %24

16:                                               ; preds = %1
  store i32 352, ptr %2, align 4
  br label %24

17:                                               ; preds = %1
  store i32 344, ptr %2, align 4
  br label %24

18:                                               ; preds = %1
  store i32 272, ptr %2, align 4
  br label %24

19:                                               ; preds = %1
  store i32 264, ptr %2, align 4
  br label %24

20:                                               ; preds = %1
  store i32 368, ptr %2, align 4
  br label %24

21:                                               ; preds = %1
  store i32 384, ptr %2, align 4
  br label %24

22:                                               ; preds = %1
  br label %23

23:                                               ; preds = %22
  store i32 0, ptr %2, align 4
  br label %24

24:                                               ; preds = %23, %21, %20, %19, %18, %17, %16, %15, %14, %13, %12, %11, %10, %9, %8, %7, %6, %5
  %25 = load i32, ptr %2, align 4
  ret i32 %25
}