; Function Attrs: mustprogress nofree norecurse nosync nounwind willreturn memory(none) uwtable
define dso_local noundef range(i32 0, 385) i32 @_ZN4Luau7CodeGen22getNativeContextOffsetEi(i32 noundef %0) local_unnamed_addr #0 {
  switch i32 %0, label %18 [
    i32 3, label %19
    i32 4, label %2
    i32 5, label %3
    i32 6, label %4
    i32 8, label %5
    i32 9, label %6
    i32 11, label %7
    i32 16, label %8
    i32 17, label %9
    i32 23, label %10
    i32 24, label %11
    i32 26, label %12
    i32 27, label %13
    i32 13, label %14
    i32 21, label %15
    i32 256, label %16
    i32 15, label %17
  ]

2:                                                ; preds = %1
  br label %19

3:                                                ; preds = %1
  br label %19

4:                                                ; preds = %1
  br label %19

5:                                                ; preds = %1
  br label %19

6:                                                ; preds = %1
  br label %19

7:                                                ; preds = %1
  br label %19

8:                                                ; preds = %1
  br label %19

9:                                                ; preds = %1
  br label %19

10:                                               ; preds = %1
  br label %19

11:                                               ; preds = %1
  br label %19

12:                                               ; preds = %1
  br label %19

13:                                               ; preds = %1
  br label %19

14:                                               ; preds = %1
  br label %19

15:                                               ; preds = %1
  br label %19

16:                                               ; preds = %1
  br label %19

17:                                               ; preds = %1
  br label %19

18:                                               ; preds = %1
  br label %19

19:                                               ; preds = %1, %18, %17, %16, %15, %14, %13, %12, %11, %10, %9, %8, %7, %6, %5, %4, %3, %2
  %.0 = phi i32 [ 0, %18 ], [ 384, %17 ], [ 368, %16 ], [ 264, %15 ], [ 272, %14 ], [ 344, %13 ], [ 352, %12 ], [ 288, %11 ], [ 296, %10 ], [ 360, %9 ], [ 376, %8 ], [ 256, %7 ], [ 312, %6 ], [ 320, %5 ], [ 328, %4 ], [ 336, %3 ], [ 280, %2 ], [ 304, %1 ]
  ret i32 %.0
}